target datalayout = "e-m:e-p270:32:32-p271:32:32-p272:64:64-i64:64-i128:128-f80:128-n8:16:32:64-S128"
target triple = "x86_64-pc-linux-gnu"

%struct.location = type { i32, i32 }
%struct.block = type { ptr, ptr }
%struct.inst = type { ptr, ptr, i32, %struct.anon, ptr, %struct.location, ptr, ptr, i32, i32, i32, i32, %struct.block, %struct.block, ptr, i32 }
%struct.anon = type { i16, ptr, %struct.jv, ptr }
%struct.jv = type { i8, i8, i16, i32, %union.anon }
%union.anon = type { ptr }

; Function Attrs: nounwind uwtable
define dso_local i32 @block_is_funcdef(ptr %0, ptr %1) #0 {
  %3 = alloca i32, align 4
  %4 = alloca %struct.block, align 8
  %5 = getelementptr inbounds nuw { ptr, ptr }, ptr %4, i32 0, i32 0
  store ptr %0, ptr %5, align 8
  %6 = getelementptr inbounds nuw { ptr, ptr }, ptr %4, i32 0, i32 1
  store ptr %1, ptr %6, align 8
  %7 = getelementptr inbounds nuw %struct.block, ptr %4, i32 0, i32 0
  %8 = load ptr, ptr %7, align 8, !tbaa !4
  %9 = icmp ne ptr %8, null
  br i1 %9, label %10, label %17

10:                                               ; preds = %2
  %11 = getelementptr inbounds nuw %struct.block, ptr %4, i32 0, i32 0
  %12 = load ptr, ptr %11, align 8, !tbaa !4
  %13 = getelementptr inbounds nuw %struct.inst, ptr %12, i32 0, i32 2
  %14 = load i32, ptr %13, align 8, !tbaa !33
  %15 = icmp eq i32 %14, 33
  br i1 %15, label %16, label %17

16:                                               ; preds = %10
  store i32 1, ptr %3, align 4
  br label %18

17:                                               ; preds = %10, %2
  store i32 0, ptr %3, align 4
  br label %18

18:                                               ; preds = %17, %16
  %19 = load i32, ptr %3, align 4
  ret i32 %19
}