; Function Attrs: mustprogress nofree norecurse nosync nounwind willreturn memory(argmem: read) uwtable
define dso_local range(i32 0, 2) i32 @block_is_funcdef(ptr readonly captures(address_is_null) %0, ptr readnone captures(none) %1) local_unnamed_addr #7 {
  %.not = icmp eq ptr %0, null
  br i1 %.not, label %7, label %3

3:                                                ; preds = %2
  %4 = getelementptr inbounds nuw i8, ptr %0, i64 16
  %5 = load i32, ptr %4, align 8, !tbaa !25
  %6 = icmp eq i32 %5, 33
  br i1 %6, label %8, label %7

7:                                                ; preds = %3, %2
  br label %8

8:                                                ; preds = %3, %7
  %.0 = phi i32 [ 0, %7 ], [ 1, %3 ]
  ret i32 %.0
}